; Function Attrs: nounwind uwtable
define dso_local void @hash_seq_init(ptr noundef writeonly captures(none) initializes((0, 12), (16, 25)) %0, ptr noundef %1) local_unnamed_addr #0 {
  store ptr %1, ptr %0, align 8
  %3 = getelementptr inbounds nuw i8, ptr %0, i64 8
  store i32 0, ptr %3, align 8
  %4 = getelementptr inbounds nuw i8, ptr %0, i64 16
  store ptr null, ptr %4, align 8
  %5 = getelementptr inbounds nuw i8, ptr %0, i64 24
  store i8 0, ptr %5, align 8
  %6 = getelementptr inbounds nuw i8, ptr %1, i64 66
  %7 = load i8, ptr %6, align 2, !range !10, !noundef !11
  %8 = trunc nuw i8 %7 to i1
  br i1 %8, label %24, label %9

9:                                                ; preds = %2
  %10 = load i32, ptr @num_seq_scans, align 4
  %11 = icmp sgt i32 %10, 99
  br i1 %11, label %12, label %register_seq_scan.exit

12:                                               ; preds = %9
  %13 = tail call zeroext i1 @errstart_cold(i32 noundef 21, ptr noundef null) #19
  tail call void @llvm.assume(i1 %13)
  %14 = getelementptr inbounds nuw i8, ptr %1, i64 56
  %15 = load ptr, ptr %14, align 8
  %16 = tail call i32 (ptr, ...) @errmsg_internal(ptr noundef nonnull @.str.14, ptr noundef %15) #17
  tail call void @errfinish(ptr noundef nonnull @.str.2, i32 noundef 1869, ptr noundef nonnull @__func__.register_seq_scan) #17
  unreachable

register_seq_scan.exit:                           ; preds = %9
  %17 = sext i32 %10 to i64
  %18 = getelementptr inbounds [100 x ptr], ptr @seq_scan_tables, i64 0, i64 %17
  store ptr %1, ptr %18, align 8
  %19 = tail call i32 @GetCurrentTransactionNestLevel() #17
  %20 = load i32, ptr @num_seq_scans, align 4
  %21 = sext i32 %20 to i64
  %22 = getelementptr inbounds [100 x i32], ptr @seq_scan_level, i64 0, i64 %21
  store i32 %19, ptr %22, align 4
  %23 = add i32 %20, 1
  store i32 %23, ptr @num_seq_scans, align 4
  br label %24

24:                                               ; preds = %register_seq_scan.exit, %2
  ret void
}